; Function Attrs: mustprogress nofree norecurse nosync nounwind willreturn memory(argmem: write) uwtable
define internal void @dc_128_4x4_c(ptr noundef writeonly captures(none) initializes((0, 8)) %0, i64 noundef %1, ptr readnone captures(none) %2, ptr readnone captures(none) %3) #4 {
  %5 = lshr i64 %1, 1
  store i64 576469548530665472, ptr %0, align 8, !tbaa !12
  %6 = getelementptr inbounds nuw i16, ptr %0, i64 %5
  store i64 576469548530665472, ptr %6, align 8, !tbaa !12
  %7 = and i64 %1, -2
  %8 = getelementptr inbounds nuw i16, ptr %0, i64 %7
  store i64 576469548530665472, ptr %8, align 8, !tbaa !12
  %.idx = mul nuw nsw i64 %5, 6
  %9 = getelementptr inbounds nuw i8, ptr %0, i64 %.idx
  store i64 576469548530665472, ptr %9, align 8, !tbaa !12
  ret void
}